target datalayout = "e-m:e-p270:32:32-p271:32:32-p272:64:64-i64:64-i128:128-f80:128-n8:16:32:64-S128"
target triple = "x86_64-pc-linux-gnu"

%"class.btInverseDynamicsBullet3::MultiBodyTree" = type { i8, i8, i8, ptr, ptr }

@.str = private unnamed_addr constant [17 x i8] c"b3Error[%s,%d]:\0A\00", align 1
@.str.1 = private unnamed_addr constant [137 x i8] c"generated/home/dtcxzyw/WorkSpace/Projects/compilers/llvm-opt-benchmark/bench/bullet3/bullet3/src/BulletInverseDynamics/MultiBodyTree.cpp\00", align 1
@.str.2 = private unnamed_addr constant [33 x i8] c"system has not been initialized\0A\00", align 1
@.str.4 = private unnamed_addr constant [34 x i8] c"error in mass matrix calculation\0A\00", align 1

; Function Attrs: mustprogress uwtable
define dso_local noundef i32 @_ZN24btInverseDynamicsBullet313MultiBodyTree19calculateMassMatrixERKNS_4vecxEbbbP9btMatrixXIfE(ptr noundef nonnull align 8 dereferenceable(24) %0, ptr noundef nonnull align 8 dereferenceable(32) %1, i1 noundef zeroext %2, i1 noundef zeroext %3, i1 noundef zeroext %4, ptr noundef %5) #2 align 2 {
  %7 = alloca i32, align 4
  %8 = alloca ptr, align 8
  %9 = alloca ptr, align 8
  %10 = alloca i8, align 1
  %11 = alloca i8, align 1
  %12 = alloca i8, align 1
  %13 = alloca ptr, align 8
  store ptr %0, ptr %8, align 8, !tbaa !12
  store ptr %1, ptr %9, align 8, !tbaa !59
  %14 = zext i1 %2 to i8
  store i8 %14, ptr %10, align 1, !tbaa !28
  %15 = zext i1 %3 to i8
  store i8 %15, ptr %11, align 1, !tbaa !28
  %16 = zext i1 %4 to i8
  store i8 %16, ptr %12, align 1, !tbaa !28
  store ptr %5, ptr %13, align 8, !tbaa !61
  %17 = load ptr, ptr %8, align 8
  %18 = getelementptr inbounds nuw %"class.btInverseDynamicsBullet3::MultiBodyTree", ptr %17, i32 0, i32 0
  %19 = load i8, ptr %18, align 8, !tbaa !14, !range !29, !noundef !30
  %20 = trunc i8 %19 to i1
  %21 = zext i1 %20 to i32
  %22 = icmp eq i32 0, %21
  br i1 %22, label %23, label %26

23:                                               ; preds = %6
  br label %24

24:                                               ; preds = %23
  call void (ptr, ...) @b3OutputErrorMessageVarArgsInternal(ptr noundef @.str, ptr noundef @.str.1, i32 noundef 120)
  call void (ptr, ...) @b3OutputErrorMessageVarArgsInternal(ptr noundef @.str.2)
  br label %25

25:                                               ; preds = %24
  store i32 -1, ptr %7, align 4
  br label %43

26:                                               ; preds = %6
  %27 = getelementptr inbounds nuw %"class.btInverseDynamicsBullet3::MultiBodyTree", ptr %17, i32 0, i32 3
  %28 = load ptr, ptr %27, align 8, !tbaa !21
  %29 = load ptr, ptr %9, align 8, !tbaa !59
  %30 = load i8, ptr %10, align 1, !tbaa !28, !range !29, !noundef !30
  %31 = trunc i8 %30 to i1
  %32 = load i8, ptr %11, align 1, !tbaa !28, !range !29, !noundef !30
  %33 = trunc i8 %32 to i1
  %34 = load i8, ptr %12, align 1, !tbaa !28, !range !29, !noundef !30
  %35 = trunc i8 %34 to i1
  %36 = load ptr, ptr %13, align 8, !tbaa !61
  %37 = call noundef i32 @_ZN24btInverseDynamicsBullet313MultiBodyTree13MultiBodyImpl19calculateMassMatrixERKNS_4vecxEbbbP9btMatrixXIfE(ptr noundef nonnull align 8 dereferenceable(400) %28, ptr noundef nonnull align 8 dereferenceable(32) %29, i1 noundef zeroext %31, i1 noundef zeroext %33, i1 noundef zeroext %35, ptr noundef %36)
  %38 = icmp eq i32 -1, %37
  br i1 %38, label %39, label %42

39:                                               ; preds = %26
  br label %40

40:                                               ; preds = %39
  call void (ptr, ...) @b3OutputErrorMessageVarArgsInternal(ptr noundef @.str, ptr noundef @.str.1, i32 noundef 127)
  call void (ptr, ...) @b3OutputErrorMessageVarArgsInternal(ptr noundef @.str.4)
  br label %41

41:                                               ; preds = %40
  store i32 -1, ptr %7, align 4
  br label %43

42:                                               ; preds = %26
  store i32 0, ptr %7, align 4
  br label %43

43:                                               ; preds = %42, %41, %25
  %44 = load i32, ptr %7, align 4
  ret i32 %44
}

; Function Attrs: mustprogress uwtable
define dso_local noundef i32 @_ZN24btInverseDynamicsBullet313MultiBodyTree19calculateMassMatrixERKNS_4vecxEP9btMatrixXIfE(ptr noundef nonnull align 8 dereferenceable(24) %0, ptr noundef nonnull align 8 dereferenceable(32) %1, ptr noundef %2) #2 align 2 {
  %4 = alloca ptr, align 8
  %5 = alloca ptr, align 8
  %6 = alloca ptr, align 8
  store ptr %0, ptr %4, align 8, !tbaa !12
  store ptr %1, ptr %5, align 8, !tbaa !59
  store ptr %2, ptr %6, align 8, !tbaa !61
  %7 = load ptr, ptr %4, align 8
  %8 = load ptr, ptr %5, align 8, !tbaa !59
  %9 = load ptr, ptr %6, align 8, !tbaa !61
  %10 = call noundef i32 @_ZN24btInverseDynamicsBullet313MultiBodyTree19calculateMassMatrixERKNS_4vecxEbbbP9btMatrixXIfE(ptr noundef nonnull align 8 dereferenceable(24) %7, ptr noundef nonnull align 8 dereferenceable(32) %8, i1 noundef zeroext true, i1 noundef zeroext true, i1 noundef zeroext true, ptr noundef %9)
  ret i32 %10
}