; Function Attrs: mustprogress uwtable
define dso_local noundef range(i32 -1, 1) i32 @_ZN24btInverseDynamicsBullet313MultiBodyTree19calculateMassMatrixERKNS_4vecxEP9btMatrixXIfE(ptr noundef nonnull readonly align 8 captures(none) dereferenceable(24) %0, ptr noundef nonnull align 8 dereferenceable(32) %1, ptr noundef %2) local_unnamed_addr #0 align 2 {
  %4 = load i8, ptr %0, align 8, !tbaa !4, !range !21, !noundef !22
  %5 = icmp eq i8 %4, 0
  br i1 %5, label %.sink.split.i, label %6

6:                                                ; preds = %3
  %7 = getelementptr inbounds nuw i8, ptr %0, i64 8
  %8 = load ptr, ptr %7, align 8, !tbaa !15
  %9 = tail call noundef i32 @_ZN24btInverseDynamicsBullet313MultiBodyTree13MultiBodyImpl19calculateMassMatrixERKNS_4vecxEbbbP9btMatrixXIfE(ptr noundef nonnull align 8 dereferenceable(400) %8, ptr noundef nonnull align 8 dereferenceable(32) %1, i1 noundef zeroext true, i1 noundef zeroext true, i1 noundef zeroext true, ptr noundef %2)
  %10 = icmp eq i32 %9, -1
  br i1 %10, label %.sink.split.i, label %_ZN24btInverseDynamicsBullet313MultiBodyTree19calculateMassMatrixERKNS_4vecxEbbbP9btMatrixXIfE.exit

.sink.split.i:                                    ; preds = %6, %3
  %.sink.i = phi i32 [ 120, %3 ], [ 127, %6 ]
  %.str.4.sink.i = phi ptr [ @.str.2, %3 ], [ @.str.4, %6 ]
  tail call void (ptr, ...) @b3OutputErrorMessageVarArgsInternal(ptr noundef nonnull @.str, ptr noundef nonnull @.str.1, i32 noundef %.sink.i)
  tail call void (ptr, ...) @b3OutputErrorMessageVarArgsInternal(ptr noundef nonnull %.str.4.sink.i)
  br label %_ZN24btInverseDynamicsBullet313MultiBodyTree19calculateMassMatrixERKNS_4vecxEbbbP9btMatrixXIfE.exit

_ZN24btInverseDynamicsBullet313MultiBodyTree19calculateMassMatrixERKNS_4vecxEbbbP9btMatrixXIfE.exit: ; preds = %6, %.sink.split.i
  %.0.i = phi i32 [ 0, %6 ], [ -1, %.sink.split.i ]
  ret i32 %.0.i
}